Certificate:
    Data:
        Version: 1 (0x0)
        Serial Number: 155 (0x9b)
        Signature Algorithm: sha256WithRSAEncryption
        Issuer: C=SE, CN=Root CA (testing)
        Validity
            Not Before: Jan  1 12:00:00 2016 GMT
            Not After : Jan  1 12:00:00 2040 GMT
        Subject: C=SE, ST=STATE, L=LOCALITY, O=ORGANIZATION, OU=DEPARTMENT, CN=RootCA69070270937913414/emailAddress=EMAIL
        Subject Public Key Info:
            Public Key Algorithm: rsaEncryption
            RSA Public Key: (2048 bit)
                Modulus (2048 bit):
                    00:da:94:05:49:83:2c:5a:83:ea:60:f6:bb:a7:48:
                    70:bf:cc:85:1d:c5:d7:6e:a9:d8:98:1f:58:17:2c:
                    37:42:16:a7:e6:b8:cc:03:ae:a5:e6:09:7b:fa:1c:
                    c6:54:f1:da:9d:92:e8:49:d7:80:23:06:53:2c:a0:
                    88:e2:ad:b7:f0:90:cf:1f:83:ee:32:19:0e:fd:5b:
                    20:19:4d:7d:5b:7f:32:94:e1:85:c8:4e:a2:c0:3e:
                    3f:f2:e7:65:cb:9b:92:34:70:a0:01:ca:65:d0:25:
                    97:67:f7:73:8f:4a:16:ab:bd:07:70:1f:47:97:3d:
                    34:d0:ea:29:09:11:49:67:56:50:30:8e:53:43:de:
                    54:f0:4c:d7:04:81:30:30:01:7c:e6:06:a0:99:1d:
                    b1:3f:9e:bc:f2:76:15:a8:b7:fd:d0:3c:8a:1b:63:
                    19:ae:a1:6e:10:df:ef:fb:22:3f:31:94:30:dc:6e:
                    9a:1a:1d:35:10:9e:49:74:8e:9f:bc:cd:1d:56:d7:
                    92:f1:00:99:83:92:43:31:14:ee:dd:1c:41:b9:c0:
                    97:c8:5c:38:2c:1d:f9:d1:85:64:05:b8:8d:fe:17:
                    84:fc:de:66:25:99:81:00:03:de:d4:27:a3:ff:e9:
                    4b:03:c5:67:24:24:3d:c6:52:cf:d5:79:dd:9c:c6:
                    68:35
                Exponent: 65537 (0x10001)
    Signature Algorithm: sha256WithRSAEncryption
        7f:95:78:2e:71:1d:6a:f4:b1:23:05:1c:7c:98:fc:d5:99:09:
        0b:a9:33:3e:b9:b5:f5:b7:cc:f3:59:0d:6a:a6:eb:f8:a1:e8:
        2d:13:de:35:43:5b:ec:b0:76:01:74:52:23:f9:ad:48:97:b9:
        6d:f1:86:76:16:f7:e7:b7:bf:09:c2:00:43:13:6e:d5:98:27:
        fc:87:c3:76:bb:0c:e8:b9:5b:c1:57:a2:ef:d4:35:15:dc:0f:
        d2:7e:93:5c:b3:e5:2f:dc:35:d3:fe:37:1a:3b:b0:65:5f:5c:
        e0:ae:62:11:85:65:38:05:c0:8a:32:af:04:2d:b5:05:b7:9a:
        6a:88:58:3b:1c:5a:f6:d1:bc:e4:b5:62:a5:e6:ab:5a:68:38:
        a6:3e:af:b1:cc:7b:a6:56:7e:e3:44:3f:f4:e4:c8:a0:ad:9c:
        ce:67:ee:c1:f0:f7:e1:61:d1:eb:79:53:48:22:47:0a:e7:89:
        8d:05:62:f0:dd:e2:5b:29:a4:ee:6a:00:39:8a:43:37:fa:75:
        21:a3:13:1d:a1:6c:74:d8:10:32:08:9b:37:3a:cf:2c:de:27:
        fc:36:73:34:24:e5:2b:05:be:84:72:cd:70:97:dc:75:6b:4c:
        c7:ba:96:4c:76:6e:9a:17:3a:4b:de:4e:fa:10:af:0a:ba:d4:
        08:21:3f:a9
-----BEGIN CERTIFICATE-----
MIIDMzCCAhsCAgCbMA0GCSqGSIb3DQEBCwUAMCkxCzAJBgNVBAYTAlNFMRowGAYD
VQQDDBFSb290IENBICh0ZXN0aW5nKTAeFw0xNjAxMDExMjAwMDBaFw00MDAxMDEx
MjAwMDBaMIGUMQswCQYDVQQGEwJTRTEOMAwGA1UECBMFU1RBVEUxETAPBgNVBAcT
CExPQ0FMSVRZMRUwEwYDVQQKEwxPUkdBTklaQVRJT04xEzARBgNVBAsTCkRFUEFS
VE1FTlQxIDAeBgNVBAMTF1Jvb3RDQTY5MDcwMjcwOTM3OTEzNDE0MRQwEgYJKoZI
hvcNAQkBFgVFTUFJTDCCASIwDQYJKoZIhvcNAQEBBQADggEPADCCAQoCggEBANqU
BUmDLFqD6mD2u6dIcL/MhR3F126p2JgfWBcsN0IWp+a4zAOupeYJe/ocxlTx2p2S
6EnXgCMGUyygiOKtt/CQzx+D7jIZDv1bIBlNfVt/MpThhchOosA+P/LnZcubkjRw
oAHKZdAll2f3c49KFqu9B3AfR5c9NNDqKQkRSWdWUDCOU0PeVPBM1wSBMDABfOYG
oJkdsT+evPJ2Fai3/dA8ihtjGa6hbhDf7/siPzGUMNxumhodNRCeSXSOn7zNHVbX
kvEAmYOSQzEU7t0cQbnAl8hcOCwd+dGFZAW4jf4XhPzeZiWZgQAD3tQno//pSwPF
ZyQkPcZSz9V53ZzGaDUCAwEAATANBgkqhkiG9w0BAQsFAAOCAQEAf5V4LnEdavSx
IwUcfJj81ZkJC6kzPrm19bfM81kNaqbr+KHoLRPeNUNb7LB2AXRSI/mtSJe5bfGG
dhb357e/CcIAQxNu1Zgn/IfDdrsM6LlbwVei79Q1FdwP0n6TXLPlL9w10/43Gjuw
ZV9c4K5iEYVlOAXAijKvBC21BbeaaohYOxxa9tG85LVipearWmg4pj6vscx7plZ+
40Q/9OTIoK2czmfuwfD34WHR63lTSCJHCueJjQVi8N3iWymk7moAOYpDN/p1IaMT
HaFsdNgQMgibNzrPLN4n/DZzNCTlKwW+hHLNcJfcdWtMx7qWTHZumhc6S95O+hCv
CrrUCCE/qQ==
-----END CERTIFICATE-----
